; Function Attrs: mustprogress uwtable
define hidden void @_ZN4cvc56parser5Input13mkStringInputERKNSt7__cxx1112basic_stringIcSt11char_traitsIcESaIcEEE(ptr noalias nocapture writeonly sret(%"class.std::unique_ptr") align 8 %agg.result, ptr noundef nonnull align 8 dereferenceable(32) %input) local_unnamed_addr #1 align 2 personality ptr @__gxx_personality_v0 {
entry:
  %call = tail call noalias noundef nonnull dereferenceable(400) ptr @_Znwm(i64 noundef 400) #9
  store ptr getelementptr inbounds ({ [6 x ptr] }, ptr @_ZTVN4cvc56parser11StringInputE, i64 0, i32 0, i64 2), ptr %call, align 8
  %d_input.i = getelementptr inbounds i8, ptr %call, i64 8
  invoke void @_ZNSt7__cxx1118basic_stringstreamIcSt11char_traitsIcESaIcEEC1Ev(ptr noundef nonnull align 8 dereferenceable(128) %d_input.i)
          to label %.noexc unwind label %lpad

.noexc:                                           ; preds = %entry
  %add.ptr.i = getelementptr inbounds i8, ptr %call, i64 24
  %call.i = invoke noundef nonnull align 8 dereferenceable(8) ptr @_ZStlsIcSt11char_traitsIcESaIcEERSt13basic_ostreamIT_T0_ES7_RKNSt7__cxx1112basic_stringIS4_S5_T1_EE(ptr noundef nonnull align 8 dereferenceable(8) %add.ptr.i, ptr noundef nonnull align 8 dereferenceable(32) %input)
          to label %invoke.cont unwind label %lpad3.i

lpad3.i:                                          ; preds = %.noexc
  %0 = landingpad { ptr, i32 }
          cleanup
  tail call void @_ZNSt7__cxx1118basic_stringstreamIcSt11char_traitsIcESaIcEED1Ev(ptr noundef nonnull align 8 dereferenceable(128) %d_input.i) #11
  br label %lpad.body

invoke.cont:                                      ; preds = %.noexc
  store ptr %call, ptr %agg.result, align 8
  ret void

lpad:                                             ; preds = %entry
  %1 = landingpad { ptr, i32 }
          cleanup
  br label %lpad.body

lpad.body:                                        ; preds = %lpad3.i, %lpad
  %eh.lpad-body = phi { ptr, i32 } [ %1, %lpad ], [ %0, %lpad3.i ]
  tail call void @_ZdlPv(ptr noundef nonnull %call) #10
  resume { ptr, i32 } %eh.lpad-body
}